Certificate:
    Data:
        Version: 3 (0x2)
        Serial Number: 4096 (0x1000)
    Signature Algorithm: sha1WithRSAEncryption
        Issuer: C=DE, ST=Baden, L=Pforzheim, O=Rexify, OU=admin, CN=openldap-01.rexify.org
        Validity
            Not Before: May 24 12:16:18 2014 GMT
            Not After : May 24 12:16:18 2015 GMT
        Subject: C=DE, ST=Baden, O=Rexify, OU=admin, CN=openldap-01.rexify.org
        Subject Public Key Info:
            Public Key Algorithm: rsaEncryption
                Public-Key: (2048 bit)
                Modulus:
                    00:fa:57:7f:af:71:9e:c7:6c:d0:d2:2c:9f:d5:4d:
                    b3:58:46:a3:5c:82:79:11:8f:b5:fe:3e:6c:fd:a9:
                    87:5b:cd:96:3b:47:82:cb:d6:a8:cb:a3:aa:1f:91:
                    4d:fd:a3:73:6e:6d:78:b0:e4:87:87:06:f2:e8:ba:
                    a3:1d:e2:7c:99:87:13:0e:fa:e8:98:e6:a4:4f:44:
                    4d:40:48:79:bc:ac:e8:6b:4b:45:4d:53:52:b8:bb:
                    43:a1:9d:e0:87:a7:6c:24:46:ed:10:fb:fc:cb:7b:
                    44:da:4c:aa:21:2f:24:a5:4d:14:9e:04:9e:b7:5d:
                    ed:06:a1:1c:ac:db:14:c2:7d:c4:5b:e2:78:90:7a:
                    59:97:42:52:d5:64:6c:9f:de:c7:f9:91:16:96:27:
                    6d:36:cf:ea:38:cb:a8:e7:f2:4a:68:31:c6:59:9b:
                    11:39:04:91:57:01:6e:17:f6:4d:7c:56:de:b5:d7:
                    1b:0b:99:b2:6b:99:bd:0e:85:a6:e7:8e:7a:3e:19:
                    91:44:40:0f:f2:dc:6f:44:ea:6f:08:2b:17:50:1e:
                    cd:34:d9:a2:72:1a:06:ef:b0:e9:04:3b:52:f7:c3:
                    ed:fc:5e:3b:cb:4b:e2:8a:76:8b:91:ab:1a:5b:ac:
                    1e:57:6d:0d:43:ea:88:d5:43:ec:8b:31:91:68:89:
                    7c:db
                Exponent: 65537 (0x10001)
        X509v3 extensions:
            X509v3 Basic Constraints: 
                CA:FALSE
            Netscape Comment: 
                OpenSSL Generated Certificate
            X509v3 Subject Key Identifier: 
                D5:9C:F6:39:C2:4F:32:E7:D7:E3:87:6D:E0:81:4E:59:21:52:25:A1
            X509v3 Authority Key Identifier: 
                keyid:91:A2:03:74:83:A3:60:D0:95:D6:5A:06:F9:58:B1:4E:2F:68:3A:C9

    Signature Algorithm: sha1WithRSAEncryption
         8b:4b:83:4f:cc:d3:82:a6:38:00:7b:2c:e5:96:88:4e:00:49:
         91:13:dc:c0:8c:65:ad:80:47:b8:5c:05:0f:37:53:0a:ca:d9:
         ff:f5:e0:31:c4:f7:73:b4:f1:c8:a2:a5:2d:32:37:9e:fe:6c:
         36:f5:3b:b8:c5:45:5f:5b:45:97:74:81:71:8e:ce:a0:3a:1c:
         ad:be:93:0c:25:18:a5:5d:23:c9:2e:d5:84:21:7c:fc:d7:28:
         62:a4:47:25:07:ba:d2:d2:44:a7:ab:e0:a9:42:6f:b5:61:66:
         63:f1:70:45:64:ae:fd:23:c8:95:80:2a:84:ea:5d:75:d4:1c:
         1f:fd:28:4e:91:5e:22:1d:75:31:01:60:32:41:f8:6b:73:c8:
         69:d3:57:66:1d:18:26:4f:74:e7:cd:70:16:40:d6:a4:45:c5:
         80:a8:de:22:8e:9e:fe:d7:7b:6d:de:6e:db:a2:02:9d:18:ce:
         b1:69:d6:19:3b:c5:6a:0f:fe:0b:a3:a4:ba:46:e3:00:5c:03:
         b0:e8:e6:4c:80:4b:1e:61:23:ca:52:1c:50:ff:68:c7:f5:56:
         6d:80:4f:6c:96:29:16:0f:60:46:1d:87:a6:1a:08:c8:3e:6a:
         f6:c8:2c:e4:94:37:35:99:d9:ef:7a:3b:b0:9d:de:47:00:8f:
         fc:cd:46:72
-----BEGIN CERTIFICATE-----
MIIDyTCCArGgAwIBAgICEAAwDQYJKoZIhvcNAQEFBQAwczELMAkGA1UEBhMCREUx
DjAMBgNVBAgMBUJhZGVuMRIwEAYDVQQHDAlQZm9yemhlaW0xDzANBgNVBAoMBlJl
eGlmeTEOMAwGA1UECwwFYWRtaW4xHzAdBgNVBAMMFm9wZW5sZGFwLTAxLnJleGlm
eS5vcmcwHhcNMTQwNTI0MTIxNjE4WhcNMTUwNTI0MTIxNjE4WjBfMQswCQYDVQQG
EwJERTEOMAwGA1UECAwFQmFkZW4xDzANBgNVBAoMBlJleGlmeTEOMAwGA1UECwwF
YWRtaW4xHzAdBgNVBAMMFm9wZW5sZGFwLTAxLnJleGlmeS5vcmcwggEiMA0GCSqG
SIb3DQEBAQUAA4IBDwAwggEKAoIBAQD6V3+vcZ7HbNDSLJ/VTbNYRqNcgnkRj7X+
Pmz9qYdbzZY7R4LL1qjLo6ofkU39o3NubXiw5IeHBvLouqMd4nyZhxMO+uiY5qRP
RE1ASHm8rOhrS0VNU1K4u0OhneCHp2wkRu0Q+/zLe0TaTKohLySlTRSeBJ63Xe0G
oRys2xTCfcRb4niQelmXQlLVZGyf3sf5kRaWJ202z+o4y6jn8kpoMcZZmxE5BJFX
AW4X9k18Vt611xsLmbJrmb0Ohabnjno+GZFEQA/y3G9E6m8IKxdQHs002aJyGgbv
sOkEO1L3w+38XjvLS+KKdouRqxpbrB5XbQ1D6ojVQ+yLMZFoiXzbAgMBAAGjezB5
MAkGA1UdEwQCMAAwLAYJYIZIAYb4QgENBB8WHU9wZW5TU0wgR2VuZXJhdGVkIENl
cnRpZmljYXRlMB0GA1UdDgQWBBTVnPY5wk8y59fjh23ggU5ZIVIloTAfBgNVHSME
GDAWgBSRogN0g6Ng0JXWWgb5WLFOL2g6yTANBgkqhkiG9w0BAQUFAAOCAQEAi0uD
T8zTgqY4AHss5ZaITgBJkRPcwIxlrYBHuFwFDzdTCsrZ//XgMcT3c7TxyKKlLTI3
nv5sNvU7uMVFX1tFl3SBcY7OoDocrb6TDCUYpV0jyS7VhCF8/NcoYqRHJQe60tJE
p6vgqUJvtWFmY/FwRWSu/SPIlYAqhOpdddQcH/0oTpFeIh11MQFgMkH4a3PIadNX
Zh0YJk90581wFkDWpEXFgKjeIo6e/td7bd5u26ICnRjOsWnWGTvFag/+C6Okukbj
AFwDsOjmTIBLHmEjylIcUP9ox/VWbYBPbJYpFg9gRh2HphoIyD5q9sgs5JQ3NZnZ
73o7sJ3eRwCP/M1Gcg==
-----END CERTIFICATE-----
